target datalayout = "e-m:e-p270:32:32-p271:32:32-p272:64:64-i64:64-i128:128-f80:128-n8:16:32:64-S128"
target triple = "x86_64-pc-linux-gnu"

@ProcessUtility_hook = dso_local global ptr null, align 8

; Function Attrs: nounwind uwtable
define dso_local void @ProcessUtility(ptr noundef %0, ptr noundef %1, i1 noundef zeroext %2, i32 noundef %3, ptr noundef %4, ptr noundef %5, ptr noundef %6, ptr noundef %7) #0 {
  %9 = alloca ptr, align 8
  %10 = alloca ptr, align 8
  %11 = alloca i8, align 1
  %12 = alloca i32, align 4
  %13 = alloca ptr, align 8
  %14 = alloca ptr, align 8
  %15 = alloca ptr, align 8
  %16 = alloca ptr, align 8
  store ptr %0, ptr %9, align 8
  store ptr %1, ptr %10, align 8
  %17 = zext i1 %2 to i8
  store i8 %17, ptr %11, align 1
  store i32 %3, ptr %12, align 4
  store ptr %4, ptr %13, align 8
  store ptr %5, ptr %14, align 8
  store ptr %6, ptr %15, align 8
  store ptr %7, ptr %16, align 8
  %18 = load ptr, ptr @ProcessUtility_hook, align 8
  %19 = icmp ne ptr %18, null
  br i1 %19, label %20, label %31

20:                                               ; preds = %8
  %21 = load ptr, ptr @ProcessUtility_hook, align 8
  %22 = load ptr, ptr %9, align 8
  %23 = load ptr, ptr %10, align 8
  %24 = load i8, ptr %11, align 1, !range !4, !noundef !5
  %25 = trunc i8 %24 to i1
  %26 = load i32, ptr %12, align 4
  %27 = load ptr, ptr %13, align 8
  %28 = load ptr, ptr %14, align 8
  %29 = load ptr, ptr %15, align 8
  %30 = load ptr, ptr %16, align 8
  call void %21(ptr noundef %22, ptr noundef %23, i1 noundef zeroext %25, i32 noundef %26, ptr noundef %27, ptr noundef %28, ptr noundef %29, ptr noundef %30)
  br label %41

31:                                               ; preds = %8
  %32 = load ptr, ptr %9, align 8
  %33 = load ptr, ptr %10, align 8
  %34 = load i8, ptr %11, align 1, !range !4, !noundef !5
  %35 = trunc i8 %34 to i1
  %36 = load i32, ptr %12, align 4
  %37 = load ptr, ptr %13, align 8
  %38 = load ptr, ptr %14, align 8
  %39 = load ptr, ptr %15, align 8
  %40 = load ptr, ptr %16, align 8
  call void @standard_ProcessUtility(ptr noundef %32, ptr noundef %33, i1 noundef zeroext %35, i32 noundef %36, ptr noundef %37, ptr noundef %38, ptr noundef %39, ptr noundef %40)
  br label %41

41:                                               ; preds = %31, %20
  ret void
}