; Function Attrs: nounwind uwtable
define dso_local void @ProcessUtility(ptr noundef %0, ptr noundef %1, i1 noundef zeroext %2, i32 noundef %3, ptr noundef %4, ptr noundef %5, ptr noundef %6, ptr noundef %7) local_unnamed_addr #0 {
  %9 = load ptr, ptr @ProcessUtility_hook, align 8
  %.not = icmp eq ptr %9, null
  br i1 %.not, label %11, label %10

10:                                               ; preds = %8
  tail call void %9(ptr noundef %0, ptr noundef %1, i1 noundef zeroext %2, i32 noundef %3, ptr noundef %4, ptr noundef %5, ptr noundef %6, ptr noundef %7) #11
  br label %12

11:                                               ; preds = %8
  tail call void @standard_ProcessUtility(ptr noundef %0, ptr noundef %1, i1 noundef zeroext %2, i32 noundef %3, ptr noundef %4, ptr noundef %5, ptr noundef %6, ptr noundef %7)
  br label %12

12:                                               ; preds = %11, %10
  ret void
}